; Function Attrs: nounwind uwtable
define void @Extra_FileReaderFree(ptr noundef captures(none) %0) local_unnamed_addr #4 {
  %2 = getelementptr inbounds nuw i8, ptr %0, i64 8
  %3 = load ptr, ptr %2, align 8, !tbaa !13
  %.not = icmp eq ptr %3, null
  br i1 %.not, label %6, label %4

4:                                                ; preds = %1
  %5 = tail call i32 @fclose(ptr noundef nonnull %3)
  br label %6

6:                                                ; preds = %4, %1
  %7 = getelementptr inbounds nuw i8, ptr %0, i64 280
  %8 = load ptr, ptr %7, align 8, !tbaa !20
  %.not11 = icmp eq ptr %8, null
  br i1 %.not11, label %10, label %9

9:                                                ; preds = %6
  tail call void @free(ptr noundef nonnull %8) #13
  store ptr null, ptr %7, align 8, !tbaa !20
  br label %10

10:                                               ; preds = %6, %9
  %11 = getelementptr inbounds nuw i8, ptr %0, i64 320
  %12 = load ptr, ptr %11, align 8, !tbaa !30
  %13 = getelementptr inbounds nuw i8, ptr %12, i64 8
  %14 = load ptr, ptr %13, align 8, !tbaa !29
  %.not.i = icmp eq ptr %14, null
  br i1 %.not.i, label %Vec_PtrFree.exit, label %15

15:                                               ; preds = %10
  tail call void @free(ptr noundef nonnull %14) #13
  br label %Vec_PtrFree.exit

Vec_PtrFree.exit:                                 ; preds = %10, %15
  tail call void @free(ptr noundef nonnull %12) #13
  %16 = getelementptr inbounds nuw i8, ptr %0, i64 328
  %17 = load ptr, ptr %16, align 8, !tbaa !36
  %18 = getelementptr inbounds nuw i8, ptr %17, i64 8
  %19 = load ptr, ptr %18, align 8, !tbaa !35
  %.not.i13 = icmp eq ptr %19, null
  br i1 %.not.i13, label %21, label %20

20:                                               ; preds = %Vec_PtrFree.exit
  tail call void @free(ptr noundef nonnull %19) #13
  br label %21

21:                                               ; preds = %Vec_PtrFree.exit, %20
  tail call void @free(ptr noundef nonnull %17) #13
  tail call void @free(ptr noundef nonnull %0) #13
  ret void
}